; Function Attrs: mustprogress uwtable
define hidden void @_ZN4lean28lean_uv_udp_socket_finalizerEPv(ptr noundef %0) #0 personality ptr @__gxx_personality_v0 {
  %2 = getelementptr inbounds nuw i8, ptr %0, i64 8
  %3 = load ptr, ptr %2, align 8, !tbaa !3
  %.not = icmp eq ptr %3, null
  br i1 %.not, label %9, label %4, !prof !9

4:                                                ; preds = %1
  tail call void @_ZN4lean26notify_assertion_violationEPKciS1_(ptr noundef nonnull @.str, i32 noundef 24, ptr noundef nonnull @.str.1)
  %5 = tail call ptr @__cxa_allocate_exception(i64 40) #15
  %6 = getelementptr inbounds nuw i8, ptr %5, i64 8
  %7 = getelementptr inbounds nuw i8, ptr %5, i64 24
  store ptr %7, ptr %6, align 8, !tbaa !10
  %8 = getelementptr inbounds nuw i8, ptr %5, i64 16
  store i64 0, ptr %8, align 8, !tbaa !13
  store i8 0, ptr %7, align 1, !tbaa !16
  store ptr getelementptr inbounds nuw inrange(-16, 24) (i8, ptr @_ZTVN4lean19unreachable_reachedE, i64 16), ptr %5, align 8, !tbaa !17
  tail call void @__cxa_throw(ptr nonnull %5, ptr nonnull @_ZTIN4lean19unreachable_reachedE, ptr nonnull @_ZN4lean9throwableD2Ev) #16
  unreachable

9:                                                ; preds = %1
  %10 = getelementptr inbounds nuw i8, ptr %0, i64 16
  %11 = load ptr, ptr %10, align 8, !tbaa !19
  %.not8 = icmp eq ptr %11, null
  br i1 %.not8, label %17, label %12, !prof !9

12:                                               ; preds = %9
  tail call void @_ZN4lean26notify_assertion_violationEPKciS1_(ptr noundef nonnull @.str, i32 noundef 25, ptr noundef nonnull @.str.2)
  %13 = tail call ptr @__cxa_allocate_exception(i64 40) #15
  %14 = getelementptr inbounds nuw i8, ptr %13, i64 8
  %15 = getelementptr inbounds nuw i8, ptr %13, i64 24
  store ptr %15, ptr %14, align 8, !tbaa !10
  %16 = getelementptr inbounds nuw i8, ptr %13, i64 16
  store i64 0, ptr %16, align 8, !tbaa !13
  store i8 0, ptr %15, align 1, !tbaa !16
  store ptr getelementptr inbounds nuw inrange(-16, 24) (i8, ptr @_ZTVN4lean19unreachable_reachedE, i64 16), ptr %13, align 8, !tbaa !17
  tail call void @__cxa_throw(ptr nonnull %13, ptr nonnull @_ZTIN4lean19unreachable_reachedE, ptr nonnull @_ZN4lean9throwableD2Ev) #16
  unreachable

17:                                               ; preds = %9
  %18 = load ptr, ptr %0, align 8, !tbaa !20
  store ptr %0, ptr %18, align 8, !tbaa !21
  tail call void @_ZN4lean15event_loop_lockEPNS_12event_loop_tE(ptr noundef nonnull @_ZN4lean9global_evE)
  %19 = load ptr, ptr %0, align 8, !tbaa !20
  tail call void @uv_close(ptr noundef %19, ptr noundef nonnull @"_ZZN4lean28lean_uv_udp_socket_finalizerEPvEN3$_08__invokeEP11uv_handle_s")
  tail call void @_ZN4lean17event_loop_unlockEPNS_12event_loop_tE(ptr noundef nonnull @_ZN4lean9global_evE)
  ret void
}